target datalayout = "e-m:e-p270:32:32-p271:32:32-p272:64:64-i64:64-i128:128-f80:128-n8:16:32:64-S128"
target triple = "x86_64-pc-linux-gnu"

%"class.llvm::MachineInstr" = type <{ %"class.llvm::ilist_node_with_parent", ptr, ptr, ptr, [3 x i8], %"class.llvm::ArrayRecycler<llvm::MachineOperand>::Capacity", i32, %"class.llvm::PointerSumType", %"class.llvm::DebugLoc", i32, i16, [2 x i8] }>
%"class.llvm::ilist_node_with_parent" = type { %"class.llvm::ilist_node" }
%"class.llvm::ilist_node" = type { %"class.llvm::ilist_node_impl" }
%"class.llvm::ilist_node_impl" = type { %"class.llvm::ilist_node_base" }
%"class.llvm::ilist_node_base" = type { %"class.llvm::ilist_detail::node_base_prevnext" }
%"class.llvm::ilist_detail::node_base_prevnext" = type { %"class.llvm::PointerIntPair", ptr }
%"class.llvm::PointerIntPair" = type { %"struct.llvm::detail::PunnedPointer" }
%"struct.llvm::detail::PunnedPointer" = type { [8 x i8] }
%"class.llvm::ArrayRecycler<llvm::MachineOperand>::Capacity" = type { i8 }
%"class.llvm::PointerSumType" = type { %"union.llvm::PointerSumType<llvm::MachineInstr::ExtraInfoInlineKinds, llvm::PointerSumTypeMember<0, llvm::MachineMemOperand *>, llvm::PointerSumTypeMember<1, llvm::MCSymbol *>, llvm::PointerSumTypeMember<2, llvm::MCSymbol *>, llvm::PointerSumTypeMember<3, llvm::MachineInstr::ExtraInfo *>>::StorageT" }
%"union.llvm::PointerSumType<llvm::MachineInstr::ExtraInfoInlineKinds, llvm::PointerSumTypeMember<0, llvm::MachineMemOperand *>, llvm::PointerSumTypeMember<1, llvm::MCSymbol *>, llvm::PointerSumTypeMember<2, llvm::MCSymbol *>, llvm::PointerSumTypeMember<3, llvm::MachineInstr::ExtraInfo *>>::StorageT" = type { i64 }
%"class.llvm::DebugLoc" = type { %"class.llvm::TypedTrackingMDRef" }
%"class.llvm::TypedTrackingMDRef" = type { %"class.llvm::TrackingMDRef" }
%"class.llvm::TrackingMDRef" = type { ptr }
%"class.llvm::ArrayRef.174" = type { ptr, i64 }

; Function Attrs: mustprogress nounwind uwtable
define linkonce_odr hidden noundef ptr @_ZN4llvm21PointerLikeTypeTraitsIPNS_17MachineMemOperandEE16getAsVoidPointerES2_(ptr noundef %0) #0 comdat align 2 {
  %2 = alloca ptr, align 8
  store ptr %0, ptr %2, align 8
  %3 = load ptr, ptr %2, align 8
  ret ptr %3
}

; Function Attrs: mustprogress nounwind uwtable
define linkonce_odr hidden noundef ptr @_ZN4llvm21PointerLikeTypeTraitsIPNS_8MCSymbolEE16getAsVoidPointerES2_(ptr noundef %0) #0 comdat align 2 {
  %2 = alloca ptr, align 8
  store ptr %0, ptr %2, align 8
  %3 = load ptr, ptr %2, align 8
  ret ptr %3
}

; Function Attrs: mustprogress nounwind uwtable
define linkonce_odr hidden noundef ptr @_ZN4llvm21PointerLikeTypeTraitsIPNS_12MachineInstr9ExtraInfoEE16getAsVoidPointerES3_(ptr noundef %0) #0 comdat align 2 {
  %2 = alloca ptr, align 8
  store ptr %0, ptr %2, align 8
  %3 = load ptr, ptr %2, align 8
  ret ptr %3
}

; Function Attrs: mustprogress nounwind uwtable
define linkonce_odr hidden void @_ZN4llvm14PointerSumTypeINS_12MachineInstr20ExtraInfoInlineKindsEJNS_20PointerSumTypeMemberILm0EPNS_17MachineMemOperandENS_21PointerLikeTypeTraitsIS5_EEEENS3_ILm1EPNS_8MCSymbolENS6_ISA_EEEENS3_ILm2ESA_SB_EENS3_ILm3EPNS1_9ExtraInfoENS6_ISF_EEEEEE3setILS2_0EEEvNS_6detail20PointerSumTypeHelperIS2_JS8_SC_SD_SH_EE6LookupIXT_EE8PointerTE(ptr noundef nonnull align 8 dereferenceable(8) %0, ptr noundef %1) #0 comdat align 2 {
  %3 = alloca ptr, align 8
  %4 = alloca ptr, align 8
  %5 = alloca ptr, align 8
  store ptr %0, ptr %3, align 8
  store ptr %1, ptr %4, align 8
  %6 = load ptr, ptr %3, align 8
  %7 = load ptr, ptr %4, align 8
  %8 = call noundef ptr @_ZN4llvm21PointerLikeTypeTraitsIPNS_17MachineMemOperandEE16getAsVoidPointerES2_(ptr noundef %7)
  store ptr %8, ptr %5, align 8
  %9 = load ptr, ptr %5, align 8
  %10 = ptrtoint ptr %9 to i64
  %11 = or i64 %10, 0
  %12 = getelementptr inbounds nuw %"class.llvm::PointerSumType", ptr %6, i32 0, i32 0
  store i64 %11, ptr %12, align 8
  ret void
}

; Function Attrs: mustprogress nounwind uwtable
define linkonce_odr hidden noundef nonnull align 8 dereferenceable(8) ptr @_ZNK4llvm8ArrayRefIPNS_17MachineMemOperandEEixEm(ptr noundef nonnull align 8 dereferenceable(16) %0, i64 noundef %1) #0 comdat align 2 {
  %3 = alloca ptr, align 8
  %4 = alloca i64, align 8
  store ptr %0, ptr %3, align 8
  store i64 %1, ptr %4, align 8
  %5 = load ptr, ptr %3, align 8
  %6 = getelementptr inbounds nuw %"class.llvm::ArrayRef.174", ptr %5, i32 0, i32 0
  %7 = load ptr, ptr %6, align 8
  %8 = load i64, ptr %4, align 8
  %9 = getelementptr inbounds ptr, ptr %7, i64 %8
  ret ptr %9
}

; Function Attrs: mustprogress nounwind uwtable
define linkonce_odr hidden void @_ZN4llvm14PointerSumTypeINS_12MachineInstr20ExtraInfoInlineKindsEJNS_20PointerSumTypeMemberILm0EPNS_17MachineMemOperandENS_21PointerLikeTypeTraitsIS5_EEEENS3_ILm1EPNS_8MCSymbolENS6_ISA_EEEENS3_ILm2ESA_SB_EENS3_ILm3EPNS1_9ExtraInfoENS6_ISF_EEEEEE3setILS2_2EEEvNS_6detail20PointerSumTypeHelperIS2_JS8_SC_SD_SH_EE6LookupIXT_EE8PointerTE(ptr noundef nonnull align 8 dereferenceable(8) %0, ptr noundef %1) #0 comdat align 2 {
  %3 = alloca ptr, align 8
  %4 = alloca ptr, align 8
  %5 = alloca ptr, align 8
  store ptr %0, ptr %3, align 8
  store ptr %1, ptr %4, align 8
  %6 = load ptr, ptr %3, align 8
  %7 = load ptr, ptr %4, align 8
  %8 = call noundef ptr @_ZN4llvm21PointerLikeTypeTraitsIPNS_8MCSymbolEE16getAsVoidPointerES2_(ptr noundef %7)
  store ptr %8, ptr %5, align 8
  %9 = load ptr, ptr %5, align 8
  %10 = ptrtoint ptr %9 to i64
  %11 = or i64 %10, 2
  %12 = getelementptr inbounds nuw %"class.llvm::PointerSumType", ptr %6, i32 0, i32 0
  store i64 %11, ptr %12, align 8
  ret void
}

; Function Attrs: mustprogress nounwind uwtable
define linkonce_odr hidden void @_ZN4llvm14PointerSumTypeINS_12MachineInstr20ExtraInfoInlineKindsEJNS_20PointerSumTypeMemberILm0EPNS_17MachineMemOperandENS_21PointerLikeTypeTraitsIS5_EEEENS3_ILm1EPNS_8MCSymbolENS6_ISA_EEEENS3_ILm2ESA_SB_EENS3_ILm3EPNS1_9ExtraInfoENS6_ISF_EEEEEE3setILS2_1EEEvNS_6detail20PointerSumTypeHelperIS2_JS8_SC_SD_SH_EE6LookupIXT_EE8PointerTE(ptr noundef nonnull align 8 dereferenceable(8) %0, ptr noundef %1) #0 comdat align 2 {
  %3 = alloca ptr, align 8
  %4 = alloca ptr, align 8
  %5 = alloca ptr, align 8
  store ptr %0, ptr %3, align 8
  store ptr %1, ptr %4, align 8
  %6 = load ptr, ptr %3, align 8
  %7 = load ptr, ptr %4, align 8
  %8 = call noundef ptr @_ZN4llvm21PointerLikeTypeTraitsIPNS_8MCSymbolEE16getAsVoidPointerES2_(ptr noundef %7)
  store ptr %8, ptr %5, align 8
  %9 = load ptr, ptr %5, align 8
  %10 = ptrtoint ptr %9 to i64
  %11 = or i64 %10, 1
  %12 = getelementptr inbounds nuw %"class.llvm::PointerSumType", ptr %6, i32 0, i32 0
  store i64 %11, ptr %12, align 8
  ret void
}

; Function Attrs: mustprogress nounwind uwtable
define linkonce_odr hidden void @_ZN4llvm14PointerSumTypeINS_12MachineInstr20ExtraInfoInlineKindsEJNS_20PointerSumTypeMemberILm0EPNS_17MachineMemOperandENS_21PointerLikeTypeTraitsIS5_EEEENS3_ILm1EPNS_8MCSymbolENS6_ISA_EEEENS3_ILm2ESA_SB_EENS3_ILm3EPNS1_9ExtraInfoENS6_ISF_EEEEEE3setILS2_3EEEvNS_6detail20PointerSumTypeHelperIS2_JS8_SC_SD_SH_EE6LookupIXT_EE8PointerTE(ptr noundef nonnull align 8 dereferenceable(8) %0, ptr noundef %1) #0 comdat align 2 {
  %3 = alloca ptr, align 8
  %4 = alloca ptr, align 8
  %5 = alloca ptr, align 8
  store ptr %0, ptr %3, align 8
  store ptr %1, ptr %4, align 8
  %6 = load ptr, ptr %3, align 8
  %7 = load ptr, ptr %4, align 8
  %8 = call noundef ptr @_ZN4llvm21PointerLikeTypeTraitsIPNS_12MachineInstr9ExtraInfoEE16getAsVoidPointerES3_(ptr noundef %7)
  store ptr %8, ptr %5, align 8
  %9 = load ptr, ptr %5, align 8
  %10 = ptrtoint ptr %9 to i64
  %11 = or i64 %10, 3
  %12 = getelementptr inbounds nuw %"class.llvm::PointerSumType", ptr %6, i32 0, i32 0
  store i64 %11, ptr %12, align 8
  ret void
}

; Function Attrs: mustprogress nounwind uwtable
define linkonce_odr hidden void @_ZN4llvm14PointerSumTypeINS_12MachineInstr20ExtraInfoInlineKindsEJNS_20PointerSumTypeMemberILm0EPNS_17MachineMemOperandENS_21PointerLikeTypeTraitsIS5_EEEENS3_ILm1EPNS_8MCSymbolENS6_ISA_EEEENS3_ILm2ESA_SB_EENS3_ILm3EPNS1_9ExtraInfoENS6_ISF_EEEEEE5clearEv(ptr noundef nonnull align 8 dereferenceable(8) %0) #0 comdat align 2 {
  %2 = alloca ptr, align 8
  store ptr %0, ptr %2, align 8
  %3 = load ptr, ptr %2, align 8
  call void @_ZN4llvm14PointerSumTypeINS_12MachineInstr20ExtraInfoInlineKindsEJNS_20PointerSumTypeMemberILm0EPNS_17MachineMemOperandENS_21PointerLikeTypeTraitsIS5_EEEENS3_ILm1EPNS_8MCSymbolENS6_ISA_EEEENS3_ILm2ESA_SB_EENS3_ILm3EPNS1_9ExtraInfoENS6_ISF_EEEEEE3setILS2_0EEEvNS_6detail20PointerSumTypeHelperIS2_JS8_SC_SD_SH_EE6LookupIXT_EE8PointerTE(ptr noundef nonnull align 8 dereferenceable(8) %3, ptr noundef null)
  ret void
}

; Function Attrs: mustprogress nounwind uwtable
define linkonce_odr hidden noundef i64 @_ZNK4llvm8ArrayRefIPNS_17MachineMemOperandEE4sizeEv(ptr noundef nonnull align 8 dereferenceable(16) %0) #0 comdat align 2 {
  %2 = alloca ptr, align 8
  store ptr %0, ptr %2, align 8
  %3 = load ptr, ptr %2, align 8
  %4 = getelementptr inbounds nuw %"class.llvm::ArrayRef.174", ptr %3, i32 0, i32 1
  %5 = load i64, ptr %4, align 8
  ret i64 %5
}

; Function Attrs: mustprogress nounwind uwtable
define dso_local void @_ZN4llvm12MachineInstr12setExtraInfoERNS_15MachineFunctionENS_8ArrayRefIPNS_17MachineMemOperandEEEPNS_8MCSymbolES8_PNS_6MDNodeESA_jSA_(ptr noundef nonnull align 8 dereferenceable(70) %0, ptr noundef nonnull align 8 dereferenceable(1041) %1, ptr %2, i64 %3, ptr noundef %4, ptr noundef %5, ptr noundef %6, ptr noundef %7, i32 noundef %8, ptr noundef %9) #0 align 2 {
  %11 = alloca %"class.llvm::ArrayRef.174", align 8
  %12 = alloca ptr, align 8
  %13 = alloca ptr, align 8
  %14 = alloca ptr, align 8
  %15 = alloca ptr, align 8
  %16 = alloca ptr, align 8
  %17 = alloca ptr, align 8
  %18 = alloca i32, align 4
  %19 = alloca ptr, align 8
  %20 = alloca i8, align 1
  %21 = alloca i8, align 1
  %22 = alloca i8, align 1
  %23 = alloca i8, align 1
  %24 = alloca i8, align 1
  %25 = alloca i8, align 1
  %26 = alloca i32, align 4
  %27 = alloca %"class.llvm::ArrayRef.174", align 8
  %28 = getelementptr inbounds nuw { ptr, i64 }, ptr %11, i32 0, i32 0
  store ptr %2, ptr %28, align 8
  %29 = getelementptr inbounds nuw { ptr, i64 }, ptr %11, i32 0, i32 1
  store i64 %3, ptr %29, align 8
  store ptr %0, ptr %12, align 8
  store ptr %1, ptr %13, align 8
  store ptr %4, ptr %14, align 8
  store ptr %5, ptr %15, align 8
  store ptr %6, ptr %16, align 8
  store ptr %7, ptr %17, align 8
  store i32 %8, ptr %18, align 4
  store ptr %9, ptr %19, align 8
  %30 = load ptr, ptr %12, align 8
  %31 = load ptr, ptr %14, align 8
  %32 = icmp ne ptr %31, null
  %33 = zext i1 %32 to i8
  store i8 %33, ptr %20, align 1
  %34 = load ptr, ptr %15, align 8
  %35 = icmp ne ptr %34, null
  %36 = zext i1 %35 to i8
  store i8 %36, ptr %21, align 1
  %37 = load ptr, ptr %16, align 8
  %38 = icmp ne ptr %37, null
  %39 = zext i1 %38 to i8
  store i8 %39, ptr %22, align 1
  %40 = load ptr, ptr %17, align 8
  %41 = icmp ne ptr %40, null
  %42 = zext i1 %41 to i8
  store i8 %42, ptr %23, align 1
  %43 = load i32, ptr %18, align 4
  %44 = icmp ne i32 %43, 0
  %45 = zext i1 %44 to i8
  store i8 %45, ptr %24, align 1
  %46 = load ptr, ptr %19, align 8
  %47 = icmp ne ptr %46, null
  %48 = zext i1 %47 to i8
  store i8 %48, ptr %25, align 1
  %49 = call noundef i64 @_ZNK4llvm8ArrayRefIPNS_17MachineMemOperandEE4sizeEv(ptr noundef nonnull align 8 dereferenceable(16) %11)
  %50 = load i8, ptr %20, align 1
  %51 = trunc i8 %50 to i1
  %52 = zext i1 %51 to i64
  %53 = add i64 %49, %52
  %54 = load i8, ptr %21, align 1
  %55 = trunc i8 %54 to i1
  %56 = zext i1 %55 to i64
  %57 = add i64 %53, %56
  %58 = load i8, ptr %22, align 1
  %59 = trunc i8 %58 to i1
  %60 = zext i1 %59 to i64
  %61 = add i64 %57, %60
  %62 = load i8, ptr %23, align 1
  %63 = trunc i8 %62 to i1
  %64 = zext i1 %63 to i64
  %65 = add i64 %61, %64
  %66 = load i8, ptr %24, align 1
  %67 = trunc i8 %66 to i1
  %68 = zext i1 %67 to i64
  %69 = add i64 %65, %68
  %70 = load i8, ptr %25, align 1
  %71 = trunc i8 %70 to i1
  %72 = zext i1 %71 to i64
  %73 = add i64 %69, %72
  %74 = trunc i64 %73 to i32
  store i32 %74, ptr %26, align 4
  %75 = load i32, ptr %26, align 4
  %76 = icmp sle i32 %75, 0
  br i1 %76, label %77, label %79

77:                                               ; preds = %10
  %78 = getelementptr inbounds nuw %"class.llvm::MachineInstr", ptr %30, i32 0, i32 7
  call void @_ZN4llvm14PointerSumTypeINS_12MachineInstr20ExtraInfoInlineKindsEJNS_20PointerSumTypeMemberILm0EPNS_17MachineMemOperandENS_21PointerLikeTypeTraitsIS5_EEEENS3_ILm1EPNS_8MCSymbolENS6_ISA_EEEENS3_ILm2ESA_SB_EENS3_ILm3EPNS1_9ExtraInfoENS6_ISF_EEEEEE5clearEv(ptr noundef nonnull align 8 dereferenceable(8) %78)
  br label %126

79:                                               ; preds = %10
  %80 = load i32, ptr %26, align 4
  %81 = icmp sgt i32 %80, 1
  br i1 %81, label %94, label %82

82:                                               ; preds = %79
  %83 = load i8, ptr %25, align 1
  %84 = trunc i8 %83 to i1
  br i1 %84, label %94, label %85

85:                                               ; preds = %82
  %86 = load i8, ptr %22, align 1
  %87 = trunc i8 %86 to i1
  br i1 %87, label %94, label %88

88:                                               ; preds = %85
  %89 = load i8, ptr %23, align 1
  %90 = trunc i8 %89 to i1
  br i1 %90, label %94, label %91

91:                                               ; preds = %88
  %92 = load i8, ptr %24, align 1
  %93 = trunc i8 %92 to i1
  br i1 %93, label %94, label %108

94:                                               ; preds = %91, %88, %85, %82, %79
  %95 = getelementptr inbounds nuw %"class.llvm::MachineInstr", ptr %30, i32 0, i32 7
  %96 = load ptr, ptr %13, align 8
  call void @llvm.memcpy.p0.p0.i64(ptr align 8 %27, ptr align 8 %11, i64 16, i1 false)
  %97 = load ptr, ptr %14, align 8
  %98 = load ptr, ptr %15, align 8
  %99 = load ptr, ptr %16, align 8
  %100 = load ptr, ptr %17, align 8
  %101 = load i32, ptr %18, align 4
  %102 = load ptr, ptr %19, align 8
  %103 = getelementptr inbounds nuw { ptr, i64 }, ptr %27, i32 0, i32 0
  %104 = load ptr, ptr %103, align 8
  %105 = getelementptr inbounds nuw { ptr, i64 }, ptr %27, i32 0, i32 1
  %106 = load i64, ptr %105, align 8
  %107 = call noundef ptr @_ZN4llvm15MachineFunction17createMIExtraInfoENS_8ArrayRefIPNS_17MachineMemOperandEEEPNS_8MCSymbolES6_PNS_6MDNodeES8_jS8_(ptr noundef nonnull align 8 dereferenceable(1041) %96, ptr %104, i64 %106, ptr noundef %97, ptr noundef %98, ptr noundef %99, ptr noundef %100, i32 noundef %101, ptr noundef %102)
  call void @_ZN4llvm14PointerSumTypeINS_12MachineInstr20ExtraInfoInlineKindsEJNS_20PointerSumTypeMemberILm0EPNS_17MachineMemOperandENS_21PointerLikeTypeTraitsIS5_EEEENS3_ILm1EPNS_8MCSymbolENS6_ISA_EEEENS3_ILm2ESA_SB_EENS3_ILm3EPNS1_9ExtraInfoENS6_ISF_EEEEEE3setILS2_3EEEvNS_6detail20PointerSumTypeHelperIS2_JS8_SC_SD_SH_EE6LookupIXT_EE8PointerTE(ptr noundef nonnull align 8 dereferenceable(8) %95, ptr noundef %107)
  br label %126

108:                                              ; preds = %91
  br label %109

109:                                              ; preds = %108
  %110 = load i8, ptr %20, align 1
  %111 = trunc i8 %110 to i1
  br i1 %111, label %112, label %115

112:                                              ; preds = %109
  %113 = getelementptr inbounds nuw %"class.llvm::MachineInstr", ptr %30, i32 0, i32 7
  %114 = load ptr, ptr %14, align 8
  call void @_ZN4llvm14PointerSumTypeINS_12MachineInstr20ExtraInfoInlineKindsEJNS_20PointerSumTypeMemberILm0EPNS_17MachineMemOperandENS_21PointerLikeTypeTraitsIS5_EEEENS3_ILm1EPNS_8MCSymbolENS6_ISA_EEEENS3_ILm2ESA_SB_EENS3_ILm3EPNS1_9ExtraInfoENS6_ISF_EEEEEE3setILS2_1EEEvNS_6detail20PointerSumTypeHelperIS2_JS8_SC_SD_SH_EE6LookupIXT_EE8PointerTE(ptr noundef nonnull align 8 dereferenceable(8) %113, ptr noundef %114)
  br label %126

115:                                              ; preds = %109
  %116 = load i8, ptr %21, align 1
  %117 = trunc i8 %116 to i1
  br i1 %117, label %118, label %121

118:                                              ; preds = %115
  %119 = getelementptr inbounds nuw %"class.llvm::MachineInstr", ptr %30, i32 0, i32 7
  %120 = load ptr, ptr %15, align 8
  call void @_ZN4llvm14PointerSumTypeINS_12MachineInstr20ExtraInfoInlineKindsEJNS_20PointerSumTypeMemberILm0EPNS_17MachineMemOperandENS_21PointerLikeTypeTraitsIS5_EEEENS3_ILm1EPNS_8MCSymbolENS6_ISA_EEEENS3_ILm2ESA_SB_EENS3_ILm3EPNS1_9ExtraInfoENS6_ISF_EEEEEE3setILS2_2EEEvNS_6detail20PointerSumTypeHelperIS2_JS8_SC_SD_SH_EE6LookupIXT_EE8PointerTE(ptr noundef nonnull align 8 dereferenceable(8) %119, ptr noundef %120)
  br label %125

121:                                              ; preds = %115
  %122 = getelementptr inbounds nuw %"class.llvm::MachineInstr", ptr %30, i32 0, i32 7
  %123 = call noundef nonnull align 8 dereferenceable(8) ptr @_ZNK4llvm8ArrayRefIPNS_17MachineMemOperandEEixEm(ptr noundef nonnull align 8 dereferenceable(16) %11, i64 noundef 0)
  %124 = load ptr, ptr %123, align 8
  call void @_ZN4llvm14PointerSumTypeINS_12MachineInstr20ExtraInfoInlineKindsEJNS_20PointerSumTypeMemberILm0EPNS_17MachineMemOperandENS_21PointerLikeTypeTraitsIS5_EEEENS3_ILm1EPNS_8MCSymbolENS6_ISA_EEEENS3_ILm2ESA_SB_EENS3_ILm3EPNS1_9ExtraInfoENS6_ISF_EEEEEE3setILS2_0EEEvNS_6detail20PointerSumTypeHelperIS2_JS8_SC_SD_SH_EE6LookupIXT_EE8PointerTE(ptr noundef nonnull align 8 dereferenceable(8) %122, ptr noundef %124)
  br label %125

125:                                              ; preds = %121, %118
  br label %126

126:                                              ; preds = %125, %112, %94, %77
  ret void
}