; Function Attrs: mustprogress nounwind uwtable
define dso_local void @_ZN4llvm12MachineInstr12setExtraInfoERNS_15MachineFunctionENS_8ArrayRefIPNS_17MachineMemOperandEEEPNS_8MCSymbolES8_PNS_6MDNodeESA_jSA_(ptr nocapture noundef nonnull writeonly align 8 dereferenceable(70) %0, ptr noundef nonnull align 8 dereferenceable(1041) %1, ptr %2, i64 %3, ptr noundef %4, ptr noundef %5, ptr noundef %6, ptr noundef %7, i32 noundef %8, ptr noundef %9) local_unnamed_addr #0 align 2 {
  %11 = icmp ne ptr %4, null
  %12 = icmp ne ptr %5, null
  %13 = icmp ne ptr %6, null
  %14 = icmp ne ptr %7, null
  %15 = icmp ne i32 %8, 0
  %16 = icmp ne ptr %9, null
  %17 = zext i1 %11 to i64
  %18 = add i64 %3, %17
  %19 = zext i1 %12 to i64
  %20 = add i64 %18, %19
  %21 = zext i1 %13 to i64
  %22 = add i64 %20, %21
  %23 = zext i1 %14 to i64
  %24 = add i64 %22, %23
  %25 = zext i1 %15 to i64
  %26 = add i64 %24, %25
  %27 = zext i1 %16 to i64
  %28 = add i64 %26, %27
  %29 = trunc i64 %28 to i32
  %30 = icmp slt i32 %29, 1
  br i1 %30, label %31, label %33

31:                                               ; preds = %10
  %32 = getelementptr inbounds nuw i8, ptr %0, i64 48
  store i64 0, ptr %32, align 8
  br label %50

33:                                               ; preds = %10
  %.not = icmp ne i32 %29, 1
  %brmerge = or i1 %16, %.not
  %brmerge31 = or i1 %13, %brmerge
  %brmerge32 = or i1 %14, %brmerge31
  %brmerge33 = or i1 %15, %brmerge32
  %34 = getelementptr inbounds nuw i8, ptr %0, i64 48
  br i1 %brmerge33, label %35, label %39

35:                                               ; preds = %33
  %36 = tail call noundef ptr @_ZN4llvm15MachineFunction17createMIExtraInfoENS_8ArrayRefIPNS_17MachineMemOperandEEEPNS_8MCSymbolES6_PNS_6MDNodeES8_jS8_(ptr noundef nonnull align 8 dereferenceable(1041) %1, ptr %2, i64 %3, ptr noundef %4, ptr noundef %5, ptr noundef %6, ptr noundef %7, i32 noundef %8, ptr noundef %9) #22
  %37 = ptrtoint ptr %36 to i64
  %38 = or i64 %37, 3
  store i64 %38, ptr %34, align 8
  br label %50

39:                                               ; preds = %33
  br i1 %11, label %40, label %43

40:                                               ; preds = %39
  %41 = ptrtoint ptr %4 to i64
  %42 = or i64 %41, 1
  store i64 %42, ptr %34, align 8
  br label %50

43:                                               ; preds = %39
  br i1 %12, label %44, label %47

44:                                               ; preds = %43
  %45 = ptrtoint ptr %5 to i64
  %46 = or i64 %45, 2
  store i64 %46, ptr %34, align 8
  br label %50

47:                                               ; preds = %43
  %48 = load ptr, ptr %2, align 8
  %49 = ptrtoint ptr %48 to i64
  store i64 %49, ptr %34, align 8
  br label %50

50:                                               ; preds = %44, %47, %40, %35, %31
  ret void
}